target datalayout = "e-m:e-p270:32:32-p271:32:32-p272:64:64-i64:64-i128:128-f80:128-n8:16:32:64-S128"
target triple = "x86_64-pc-linux-gnu"

%struct.rb_addrinfo = type { ptr, i32 }
%struct.addrinfo = type { i32, i32, i32, i32, i32, ptr, ptr, ptr }

; Function Attrs: nounwind sspstrong uwtable
define void @rb_freeaddrinfo(ptr noundef %0) #0 {
  %2 = alloca ptr, align 8
  %3 = alloca ptr, align 8
  %4 = alloca ptr, align 8
  store ptr %0, ptr %2, align 8, !tbaa !6
  %5 = load ptr, ptr %2, align 8, !tbaa !6
  %6 = getelementptr inbounds nuw %struct.rb_addrinfo, ptr %5, i32 0, i32 1
  %7 = load i32, ptr %6, align 8, !tbaa !11
  %8 = icmp ne i32 %7, 0
  br i1 %8, label %19, label %9

9:                                                ; preds = %1
  %10 = load ptr, ptr %2, align 8, !tbaa !6
  %11 = getelementptr inbounds nuw %struct.rb_addrinfo, ptr %10, i32 0, i32 0
  %12 = load ptr, ptr %11, align 8, !tbaa !15
  %13 = icmp ne ptr %12, null
  br i1 %13, label %14, label %18

14:                                               ; preds = %9
  %15 = load ptr, ptr %2, align 8, !tbaa !6
  %16 = getelementptr inbounds nuw %struct.rb_addrinfo, ptr %15, i32 0, i32 0
  %17 = load ptr, ptr %16, align 8, !tbaa !15
  call void @freeaddrinfo(ptr noundef %17) #24
  br label %18

18:                                               ; preds = %14, %9
  br label %36

19:                                               ; preds = %1
  call void @llvm.lifetime.start.p0(i64 8, ptr %3) #24
  call void @llvm.lifetime.start.p0(i64 8, ptr %4) #24
  %20 = load ptr, ptr %2, align 8, !tbaa !6
  %21 = getelementptr inbounds nuw %struct.rb_addrinfo, ptr %20, i32 0, i32 0
  %22 = load ptr, ptr %21, align 8, !tbaa !15
  store ptr %22, ptr %3, align 8, !tbaa !16
  br label %23

23:                                               ; preds = %26, %19
  %24 = load ptr, ptr %3, align 8, !tbaa !16
  %25 = icmp ne ptr %24, null
  br i1 %25, label %26, label %35

26:                                               ; preds = %23
  %27 = load ptr, ptr %3, align 8, !tbaa !16
  %28 = getelementptr inbounds nuw %struct.addrinfo, ptr %27, i32 0, i32 7
  %29 = load ptr, ptr %28, align 8, !tbaa !17
  store ptr %29, ptr %4, align 8, !tbaa !16
  %30 = load ptr, ptr %3, align 8, !tbaa !16
  %31 = getelementptr inbounds nuw %struct.addrinfo, ptr %30, i32 0, i32 5
  %32 = load ptr, ptr %31, align 8, !tbaa !21
  call void @ruby_xfree(ptr noundef %32)
  %33 = load ptr, ptr %3, align 8, !tbaa !16
  call void @ruby_xfree(ptr noundef %33)
  %34 = load ptr, ptr %4, align 8, !tbaa !16
  store ptr %34, ptr %3, align 8, !tbaa !16
  br label %23, !llvm.loop !22

35:                                               ; preds = %23
  call void @llvm.lifetime.end.p0(i64 8, ptr %4) #24
  call void @llvm.lifetime.end.p0(i64 8, ptr %3) #24
  br label %36

36:                                               ; preds = %35, %18
  %37 = load ptr, ptr %2, align 8, !tbaa !6
  call void @ruby_xfree(ptr noundef %37)
  ret void
}