; Function Attrs: nounwind sspstrong uwtable
define void @rb_freeaddrinfo(ptr noundef %0) local_unnamed_addr #0 {
  %2 = getelementptr inbounds nuw i8, ptr %0, i64 8
  %3 = load i32, ptr %2, align 8, !tbaa !6
  %.not = icmp eq i32 %3, 0
  %4 = load ptr, ptr %0, align 8, !tbaa !13
  %.not11 = icmp eq ptr %4, null
  br i1 %.not, label %5, label %7

5:                                                ; preds = %1
  br i1 %.not11, label %.loopexit, label %6

6:                                                ; preds = %5
  tail call void @freeaddrinfo(ptr noundef nonnull %4) #21
  br label %.loopexit

7:                                                ; preds = %1
  br i1 %.not11, label %.loopexit, label %.lr.ph

.lr.ph:                                           ; preds = %7, %.lr.ph
  %.014 = phi ptr [ %9, %.lr.ph ], [ %4, %7 ]
  %8 = getelementptr inbounds nuw i8, ptr %.014, i64 40
  %9 = load ptr, ptr %8, align 8, !tbaa !14
  %10 = getelementptr inbounds nuw i8, ptr %.014, i64 24
  %11 = load ptr, ptr %10, align 8, !tbaa !18
  tail call void @ruby_xfree(ptr noundef %11) #21
  tail call void @ruby_xfree(ptr noundef nonnull %.014) #21
  %.not12 = icmp eq ptr %9, null
  br i1 %.not12, label %.loopexit, label %.lr.ph, !llvm.loop !19

.loopexit:                                        ; preds = %.lr.ph, %7, %5, %6
  tail call void @ruby_xfree(ptr noundef nonnull %0) #21
  ret void
}